target datalayout = "e-m:e-p270:32:32-p271:32:32-p272:64:64-i64:64-i128:128-f80:128-n8:16:32:64-S128"
target triple = "x86_64-pc-linux-gnu"

%struct.ewah_bitmap = type { ptr, i64, i64, i64, ptr }

@bitmap_pool_size = internal global i64 0, align 8
@bitmap_pool = internal global [16 x ptr] zeroinitializer, align 16
@.str = private unnamed_addr constant [27 x i8] c"size_t overflow: %lu * %lu\00", align 1

; Function Attrs: nounwind uwtable
define internal void @ewah_clear(ptr noundef %0) #0 {
  %2 = alloca ptr, align 8
  store ptr %0, ptr %2, align 8, !tbaa !4
  %3 = load ptr, ptr %2, align 8, !tbaa !4
  %4 = getelementptr inbounds nuw %struct.ewah_bitmap, ptr %3, i32 0, i32 1
  store i64 1, ptr %4, align 8, !tbaa !20
  %5 = load ptr, ptr %2, align 8, !tbaa !4
  %6 = getelementptr inbounds nuw %struct.ewah_bitmap, ptr %5, i32 0, i32 0
  %7 = load ptr, ptr %6, align 8, !tbaa !21
  %8 = getelementptr inbounds i64, ptr %7, i64 0
  store i64 0, ptr %8, align 8, !tbaa !11
  %9 = load ptr, ptr %2, align 8, !tbaa !4
  %10 = getelementptr inbounds nuw %struct.ewah_bitmap, ptr %9, i32 0, i32 3
  store i64 0, ptr %10, align 8, !tbaa !13
  %11 = load ptr, ptr %2, align 8, !tbaa !4
  %12 = getelementptr inbounds nuw %struct.ewah_bitmap, ptr %11, i32 0, i32 0
  %13 = load ptr, ptr %12, align 8, !tbaa !21
  %14 = load ptr, ptr %2, align 8, !tbaa !4
  %15 = getelementptr inbounds nuw %struct.ewah_bitmap, ptr %14, i32 0, i32 4
  store ptr %13, ptr %15, align 8, !tbaa !16
  ret void
}

; Function Attrs: inlinehint nounwind uwtable
define internal i64 @st_mult(i64 noundef %0, i64 noundef %1) #2 {
  %3 = alloca i64, align 8
  %4 = alloca i64, align 8
  store i64 %0, ptr %3, align 8, !tbaa !11
  store i64 %1, ptr %4, align 8, !tbaa !11
  %5 = load i64, ptr %3, align 8, !tbaa !11
  %6 = icmp ne i64 %5, 0
  br i1 %6, label %7, label %15

7:                                                ; preds = %2
  %8 = load i64, ptr %4, align 8, !tbaa !11
  %9 = load i64, ptr %3, align 8, !tbaa !11
  %10 = udiv i64 -1, %9
  %11 = icmp ugt i64 %8, %10
  br i1 %11, label %12, label %15

12:                                               ; preds = %7
  %13 = load i64, ptr %3, align 8, !tbaa !11
  %14 = load i64, ptr %4, align 8, !tbaa !11
  call void (ptr, ...) @die(ptr noundef @.str, i64 noundef %13, i64 noundef %14) #8
  unreachable

15:                                               ; preds = %7, %2
  %16 = load i64, ptr %3, align 8, !tbaa !11
  %17 = load i64, ptr %4, align 8, !tbaa !11
  %18 = mul i64 %16, %17
  ret i64 %18
}

; Function Attrs: nounwind uwtable
define dso_local ptr @ewah_new() #0 {
  %1 = alloca ptr, align 8
  call void @llvm.lifetime.start.p0(i64 8, ptr %1) #7
  %2 = call ptr @xmalloc(i64 noundef 40)
  store ptr %2, ptr %1, align 8, !tbaa !4
  %3 = load ptr, ptr %1, align 8, !tbaa !4
  %4 = getelementptr inbounds nuw %struct.ewah_bitmap, ptr %3, i32 0, i32 2
  store i64 32, ptr %4, align 8, !tbaa !23
  %5 = load ptr, ptr %1, align 8, !tbaa !4
  %6 = getelementptr inbounds nuw %struct.ewah_bitmap, ptr %5, i32 0, i32 2
  %7 = load i64, ptr %6, align 8, !tbaa !23
  %8 = call i64 @st_mult(i64 noundef 8, i64 noundef %7)
  %9 = call ptr @xmalloc(i64 noundef %8)
  %10 = load ptr, ptr %1, align 8, !tbaa !4
  %11 = getelementptr inbounds nuw %struct.ewah_bitmap, ptr %10, i32 0, i32 0
  store ptr %9, ptr %11, align 8, !tbaa !21
  %12 = load ptr, ptr %1, align 8, !tbaa !4
  call void @ewah_clear(ptr noundef %12)
  %13 = load ptr, ptr %1, align 8, !tbaa !4
  call void @llvm.lifetime.end.p0(i64 8, ptr %1) #7
  ret ptr %13
}

; Function Attrs: nounwind uwtable
define dso_local ptr @ewah_pool_new() #0 {
  %1 = alloca ptr, align 8
  %2 = load i64, ptr @bitmap_pool_size, align 8, !tbaa !11
  %3 = icmp ne i64 %2, 0
  br i1 %3, label %4, label %9

4:                                                ; preds = %0
  %5 = load i64, ptr @bitmap_pool_size, align 8, !tbaa !11
  %6 = add i64 %5, -1
  store i64 %6, ptr @bitmap_pool_size, align 8, !tbaa !11
  %7 = getelementptr inbounds nuw [16 x ptr], ptr @bitmap_pool, i64 0, i64 %6
  %8 = load ptr, ptr %7, align 8, !tbaa !4
  store ptr %8, ptr %1, align 8
  br label %11

9:                                                ; preds = %0
  %10 = call ptr @ewah_new()
  store ptr %10, ptr %1, align 8
  br label %11

11:                                               ; preds = %9, %4
  %12 = load ptr, ptr %1, align 8
  ret ptr %12
}