; Function Attrs: nounwind uwtable
define dso_local ptr @ewah_pool_new() local_unnamed_addr #0 {
  %1 = load i64, ptr @bitmap_pool_size, align 8, !tbaa !12
  %.not = icmp eq i64 %1, 0
  br i1 %.not, label %6, label %2

2:                                                ; preds = %0
  %3 = add i64 %1, -1
  store i64 %3, ptr @bitmap_pool_size, align 8, !tbaa !12
  %4 = getelementptr inbounds nuw [16 x ptr], ptr @bitmap_pool, i64 0, i64 %3
  %5 = load ptr, ptr %4, align 8, !tbaa !43
  br label %13

6:                                                ; preds = %0
  %7 = tail call ptr @xmalloc(i64 noundef 40) #12
  %8 = getelementptr inbounds nuw i8, ptr %7, i64 16
  store i64 32, ptr %8, align 8, !tbaa !15
  %9 = tail call ptr @xmalloc(i64 noundef 256) #12
  store ptr %9, ptr %7, align 8, !tbaa !14
  %10 = getelementptr inbounds nuw i8, ptr %7, i64 8
  store i64 1, ptr %10, align 8, !tbaa !13
  store i64 0, ptr %9, align 8, !tbaa !12
  %11 = getelementptr inbounds nuw i8, ptr %7, i64 24
  store i64 0, ptr %11, align 8, !tbaa !4
  %12 = getelementptr inbounds nuw i8, ptr %7, i64 32
  store ptr %9, ptr %12, align 8, !tbaa !11
  br label %13

13:                                               ; preds = %6, %2
  %.0 = phi ptr [ %5, %2 ], [ %7, %6 ]
  ret ptr %.0
}